; Function Attrs: mustprogress nounwind uwtable
define hidden void @_ZN10HeapShared15resolve_or_initEP5KlassbP10JavaThread(ptr noundef %0, i1 noundef zeroext %1, ptr noundef %2) local_unnamed_addr #2 align 2 {
  br i1 %1, label %12, label %4

4:                                                ; preds = %3
  %5 = getelementptr inbounds i8, ptr %0, i64 152
  %6 = load ptr, ptr %5, align 8
  %7 = icmp eq ptr %6, null
  br i1 %7, label %8, label %26

8:                                                ; preds = %4
  %9 = getelementptr inbounds i8, ptr %0, i64 24
  %10 = load ptr, ptr %9, align 8
  %11 = tail call noundef ptr @_ZN16SystemDictionary15resolve_or_nullEP6Symbol6HandleS2_P10JavaThread(ptr noundef %10, ptr null, ptr null, ptr noundef %2) #20
  br label %26

12:                                               ; preds = %3
  %13 = getelementptr inbounds i8, ptr %0, i64 12
  %14 = load i32, ptr %13, align 4
  %15 = icmp slt i32 %14, 5
  br i1 %15, label %16, label %20

16:                                               ; preds = %12
  %17 = load ptr, ptr %0, align 8
  %18 = getelementptr inbounds i8, ptr %17, i64 176
  %19 = load ptr, ptr %18, align 8
  tail call void %19(ptr noundef nonnull align 8 dereferenceable(464) %0, ptr noundef %2) #20
  br label %26

20:                                               ; preds = %12
  %21 = icmp eq i32 %14, 6
  br i1 %21, label %22, label %26

22:                                               ; preds = %20
  %23 = load ptr, ptr %0, align 8
  %24 = getelementptr inbounds i8, ptr %23, i64 176
  %25 = load ptr, ptr %24, align 8
  tail call void %25(ptr noundef nonnull align 8 dereferenceable(232) %0, ptr noundef %2) #20
  br label %26

26:                                               ; preds = %22, %16, %8, %20, %4
  ret void
}